target datalayout = "e-m:e-p270:32:32-p271:32:32-p272:64:64-i64:64-i128:128-f80:128-n8:16:32:64-S128"
target triple = "x86_64-pc-linux-gnu"

%struct.expert_field = type { i32, i32 }
%struct._proto_node = type { ptr, ptr, ptr, ptr, ptr, ptr, ptr }
%struct.field_info = type { ptr, i32, i32, i32, i32, i32, i32, ptr, ptr, ptr, i32, i32 }
%struct._packet_info = type { ptr, ptr, i32, i32, %struct.nstime_t, %struct.nstime_t, %struct.nstime_t, i8, ptr, ptr, ptr, ptr, %struct._address, %struct._address, %struct._address, %struct._address, %struct._address, %struct._address, i32, ptr, i8, [3 x i8], %struct.anon, i32, i32, i32, i32, ptr, i8, ptr, ptr, i16, i16, i32, i32, i16, i32, i32, ptr, ptr, ptr, i8, i8, i16, i16, i16, i32, i16, i16, ptr, ptr, ptr, ptr, ptr, i32, i32 }
%struct.nstime_t = type { i64, i32 }
%struct._address = type { i32, i32, ptr, ptr }
%struct.anon = type { i8, [3 x i8] }
%struct._asn1_ctx_t = type { i32, i32, i8, ptr, ptr, ptr, ptr, ptr, %struct.anon.0, %struct.anon.3, %struct.anon.4, ptr }
%struct.anon.0 = type { i32, i8, i8, i8, ptr, ptr, i32, i32, ptr, ptr, ptr, %union.anon }
%union.anon = type { %struct.anon.1 }
%struct.anon.1 = type { ptr }
%struct.anon.3 = type { ptr, ptr, ptr }
%struct.anon.4 = type { i32, i8, ptr, i32, i32, ptr, ptr, ptr, %union.anon.5 }
%union.anon.5 = type { %struct.anon.6 }
%struct.anon.6 = type { ptr }

@ei_per_undecoded = internal global %struct.expert_field zeroinitializer, align 4
@.str = private unnamed_addr constant [28 x i8] c"something unknown here [%s]\00", align 1
@.str.1 = private unnamed_addr constant [18 x i8] c"[UNKNOWN PER: %s]\00", align 1
@display_internal_per_fields = internal global i8 0, align 1
@hf_per_octet_string_length = internal global i32 0, align 4
@.str.14 = private unnamed_addr constant [19 x i8] c"BMPString too long\00", align 1

; Function Attrs: null_pointer_is_valid sspstrong uwtable
define void @dissect_per_not_decoded_yet(ptr noundef %0, ptr noundef %1, ptr noundef %2, ptr noundef %3) #0 {
  %5 = alloca ptr, align 8
  %6 = alloca ptr, align 8
  %7 = alloca ptr, align 8
  %8 = alloca ptr, align 8
  store ptr %0, ptr %5, align 8
  store ptr %1, ptr %6, align 8
  store ptr %2, ptr %7, align 8
  store ptr %3, ptr %8, align 8
  %9 = load ptr, ptr %5, align 8
  %10 = load ptr, ptr %6, align 8
  %11 = load ptr, ptr %7, align 8
  %12 = load ptr, ptr %8, align 8
  %13 = call ptr (ptr, ptr, ptr, ptr, i32, i32, ptr, ...) @proto_tree_add_expert_format(ptr noundef %9, ptr noundef %10, ptr noundef @ei_per_undecoded, ptr noundef %11, i32 noundef 0, i32 noundef 0, ptr noundef @.str, ptr noundef %12)
  %14 = load ptr, ptr %6, align 8
  %15 = getelementptr inbounds nuw %struct._packet_info, ptr %14, i32 0, i32 1
  %16 = load ptr, ptr %15, align 8
  %17 = load ptr, ptr %8, align 8
  call void (ptr, i32, ptr, ...) @col_append_fstr(ptr noundef %16, i32 noundef 25, ptr noundef @.str.1, ptr noundef %17)
  call void @except_throw(i64 noundef 1, i64 noundef 3, ptr noundef null) #12
  unreachable
}

; Function Attrs: inlinehint nounwind null_pointer_is_valid sspstrong uwtable
define internal void @proto_item_set_hidden(ptr noundef %0) #3 {
  %2 = alloca ptr, align 8
  store ptr %0, ptr %2, align 8
  %3 = load ptr, ptr %2, align 8
  %4 = icmp ne ptr %3, null
  br i1 %4, label %5, label %24

5:                                                ; preds = %1
  br label %6

6:                                                ; preds = %5
  %7 = load ptr, ptr %2, align 8
  %8 = getelementptr inbounds nuw %struct._proto_node, ptr %7, i32 0, i32 5
  %9 = load ptr, ptr %8, align 8
  %10 = icmp ne ptr %9, null
  br i1 %10, label %11, label %22

11:                                               ; preds = %6
  %12 = load ptr, ptr %2, align 8
  %13 = getelementptr inbounds nuw %struct._proto_node, ptr %12, i32 0, i32 5
  %14 = load ptr, ptr %13, align 8
  %15 = getelementptr inbounds nuw %struct.field_info, ptr %14, i32 0, i32 6
  %16 = load i32, ptr %15, align 4
  %17 = or i32 %16, 1
  %18 = load ptr, ptr %2, align 8
  %19 = getelementptr inbounds nuw %struct._proto_node, ptr %18, i32 0, i32 5
  %20 = load ptr, ptr %19, align 8
  %21 = getelementptr inbounds nuw %struct.field_info, ptr %20, i32 0, i32 6
  store i32 %17, ptr %21, align 4
  br label %22

22:                                               ; preds = %11, %6
  br label %23

23:                                               ; preds = %22
  br label %24

24:                                               ; preds = %23, %1
  ret void
}

; Function Attrs: null_pointer_is_valid sspstrong uwtable
define i32 @dissect_per_BMPString(ptr noundef %0, i32 noundef %1, ptr noundef %2, ptr noundef %3, i32 noundef %4, i32 noundef %5, i32 noundef %6, i1 noundef zeroext %7) #0 {
  %9 = alloca i32, align 4
  %10 = alloca ptr, align 8
  %11 = alloca i32, align 4
  %12 = alloca ptr, align 8
  %13 = alloca ptr, align 8
  %14 = alloca i32, align 4
  %15 = alloca i32, align 4
  %16 = alloca i32, align 4
  %17 = alloca i8, align 1
  %18 = alloca i32, align 4
  %19 = alloca i32, align 4
  store ptr %0, ptr %10, align 8
  store i32 %1, ptr %11, align 4
  store ptr %2, ptr %12, align 8
  store ptr %3, ptr %13, align 8
  store i32 %4, ptr %14, align 4
  store i32 %5, ptr %15, align 4
  store i32 %6, ptr %16, align 4
  %20 = zext i1 %7 to i8
  store i8 %20, ptr %17, align 1
  call void @llvm.lifetime.start.p0(i64 4, ptr %18) #11
  %21 = load i32, ptr %16, align 4
  %22 = icmp eq i32 %21, 0
  br i1 %22, label %23, label %25

23:                                               ; preds = %8
  %24 = load i32, ptr %11, align 4
  store i32 %24, ptr %9, align 4
  store i32 1, ptr %19, align 4
  br label %82

25:                                               ; preds = %8
  %26 = load i32, ptr %15, align 4
  %27 = icmp eq i32 %26, -1
  br i1 %27, label %28, label %29

28:                                               ; preds = %25
  store i32 0, ptr %15, align 4
  br label %29

29:                                               ; preds = %28, %25
  %30 = load i32, ptr %16, align 4
  store i32 %30, ptr %18, align 4
  %31 = load i32, ptr %15, align 4
  %32 = load i32, ptr %16, align 4
  %33 = icmp ne i32 %31, %32
  br i1 %33, label %34, label %50

34:                                               ; preds = %29
  %35 = load ptr, ptr %10, align 8
  %36 = load i32, ptr %11, align 4
  %37 = load ptr, ptr %12, align 8
  %38 = load ptr, ptr %13, align 8
  %39 = load i32, ptr @hf_per_octet_string_length, align 4
  %40 = load i32, ptr %15, align 4
  %41 = load i32, ptr %16, align 4
  %42 = call i32 @dissect_per_constrained_integer(ptr noundef %35, i32 noundef %36, ptr noundef %37, ptr noundef %38, i32 noundef %39, i32 noundef %40, i32 noundef %41, ptr noundef %18, i1 noundef zeroext false)
  store i32 %42, ptr %11, align 4
  %43 = load i8, ptr @display_internal_per_fields, align 1, !range !6, !noundef !7
  %44 = trunc i8 %43 to i1
  br i1 %44, label %49, label %45

45:                                               ; preds = %34
  %46 = load ptr, ptr %12, align 8
  %47 = getelementptr inbounds nuw %struct._asn1_ctx_t, ptr %46, i32 0, i32 4
  %48 = load ptr, ptr %47, align 8
  call void @proto_item_set_hidden(ptr noundef %48)
  br label %49

49:                                               ; preds = %45, %34
  br label %50

50:                                               ; preds = %49, %29
  %51 = load i32, ptr %11, align 4
  %52 = and i32 %51, 7
  %53 = icmp ne i32 %52, 0
  br i1 %53, label %54, label %58

54:                                               ; preds = %50
  %55 = load i32, ptr %11, align 4
  %56 = and i32 %55, -8
  %57 = add i32 %56, 8
  store i32 %57, ptr %11, align 4
  br label %58

58:                                               ; preds = %54, %50
  %59 = load i32, ptr %18, align 4
  %60 = icmp uge i32 %59, 1024
  br i1 %60, label %61, label %67

61:                                               ; preds = %58
  %62 = load ptr, ptr %13, align 8
  %63 = load ptr, ptr %12, align 8
  %64 = getelementptr inbounds nuw %struct._asn1_ctx_t, ptr %63, i32 0, i32 3
  %65 = load ptr, ptr %64, align 8
  %66 = load ptr, ptr %10, align 8
  call void @dissect_per_not_decoded_yet(ptr noundef %62, ptr noundef %65, ptr noundef %66, ptr noundef @.str.14)
  store i32 1024, ptr %18, align 4
  br label %67

67:                                               ; preds = %61, %58
  %68 = load ptr, ptr %13, align 8
  %69 = load i32, ptr %14, align 4
  %70 = load ptr, ptr %10, align 8
  %71 = load i32, ptr %11, align 4
  %72 = lshr i32 %71, 3
  %73 = load i32, ptr %18, align 4
  %74 = mul i32 %73, 2
  %75 = call ptr @proto_tree_add_item(ptr noundef %68, i32 noundef %69, ptr noundef %70, i32 noundef %72, i32 noundef %74, i32 noundef 6)
  %76 = load i32, ptr %18, align 4
  %77 = shl i32 %76, 3
  %78 = mul i32 %77, 2
  %79 = load i32, ptr %11, align 4
  %80 = add i32 %79, %78
  store i32 %80, ptr %11, align 4
  %81 = load i32, ptr %11, align 4
  store i32 %81, ptr %9, align 4
  store i32 1, ptr %19, align 4
  br label %82

82:                                               ; preds = %67, %23
  call void @llvm.lifetime.end.p0(i64 4, ptr %18) #11
  %83 = load i32, ptr %9, align 4
  ret i32 %83
}