; Function Attrs: null_pointer_is_valid sspstrong uwtable
define i32 @dissect_per_BMPString(ptr noundef %0, i32 noundef %1, ptr noundef captures(none) %2, ptr noundef %3, i32 noundef %4, i32 noundef %5, i32 noundef %6, i1 noundef zeroext %7) local_unnamed_addr #0 {
  %9 = alloca i32, align 4
  call void @llvm.lifetime.start.p0(i64 4, ptr nonnull %9) #13
  %10 = icmp eq i32 %6, 0
  br i1 %10, label %43, label %11

11:                                               ; preds = %8
  %12 = icmp eq i32 %5, -1
  %spec.store.select = select i1 %12, i32 0, i32 %5
  store i32 %6, ptr %9, align 4
  %.not = icmp eq i32 %spec.store.select, %6
  br i1 %.not, label %proto_item_set_hidden.exit, label %13

13:                                               ; preds = %11
  %14 = load i32, ptr @hf_per_octet_string_length, align 4
  %15 = call i32 @dissect_per_constrained_integer(ptr noundef %0, i32 noundef %1, ptr noundef %2, ptr noundef %3, i32 noundef %14, i32 noundef %spec.store.select, i32 noundef %6, ptr noundef nonnull %9, i1 noundef zeroext false)
  %16 = load i8, ptr @display_internal_per_fields, align 1, !range !6, !noundef !7
  %17 = trunc nuw i8 %16 to i1
  br i1 %17, label %proto_item_set_hidden.exitthread-pre-split, label %18

18:                                               ; preds = %13
  %19 = getelementptr inbounds nuw i8, ptr %2, i64 24
  %20 = load ptr, ptr %19, align 8
  %.not.i = icmp eq ptr %20, null
  br i1 %.not.i, label %proto_item_set_hidden.exitthread-pre-split, label %21

21:                                               ; preds = %18
  %22 = getelementptr inbounds nuw i8, ptr %20, i64 40
  %23 = load ptr, ptr %22, align 8
  %.not5.i = icmp eq ptr %23, null
  br i1 %.not5.i, label %proto_item_set_hidden.exitthread-pre-split, label %24

24:                                               ; preds = %21
  %25 = getelementptr inbounds nuw i8, ptr %23, i64 28
  %26 = load i32, ptr %25, align 4
  %27 = or i32 %26, 1
  store i32 %27, ptr %25, align 4
  br label %proto_item_set_hidden.exitthread-pre-split

proto_item_set_hidden.exitthread-pre-split:       ; preds = %13, %18, %21, %24
  %.pr = load i32, ptr %9, align 4
  br label %proto_item_set_hidden.exit

proto_item_set_hidden.exit:                       ; preds = %proto_item_set_hidden.exitthread-pre-split, %11
  %28 = phi i32 [ %.pr, %proto_item_set_hidden.exitthread-pre-split ], [ %6, %11 ]
  %.024 = phi i32 [ %15, %proto_item_set_hidden.exitthread-pre-split ], [ %1, %11 ]
  %29 = icmp ugt i32 %28, 1023
  br i1 %29, label %30, label %36

30:                                               ; preds = %proto_item_set_hidden.exit
  %31 = getelementptr inbounds nuw i8, ptr %2, i64 16
  %32 = load ptr, ptr %31, align 8
  %33 = call ptr (ptr, ptr, ptr, ptr, i32, i32, ptr, ...) @proto_tree_add_expert_format(ptr noundef %3, ptr noundef %32, ptr noundef nonnull @ei_per_undecoded, ptr noundef %0, i32 noundef 0, i32 noundef 0, ptr noundef nonnull @.str, ptr noundef nonnull @.str.14)
  %34 = getelementptr inbounds nuw i8, ptr %32, i64 8
  %35 = load ptr, ptr %34, align 8
  call void (ptr, i32, ptr, ...) @col_append_fstr(ptr noundef %35, i32 noundef 25, ptr noundef nonnull @.str.1, ptr noundef nonnull @.str.14)
  call void @except_throw(i64 noundef 1, i64 noundef 3, ptr noundef null) #12
  unreachable

36:                                               ; preds = %proto_item_set_hidden.exit
  %.024.biased = add i32 %.024, 7
  %.1 = and i32 %.024.biased, -8
  %37 = lshr i32 %.024.biased, 3
  %38 = shl nuw nsw i32 %28, 1
  %39 = call ptr @proto_tree_add_item(ptr noundef %3, i32 noundef %4, ptr noundef %0, i32 noundef %37, i32 noundef %38, i32 noundef 6)
  %40 = load i32, ptr %9, align 4
  %41 = shl i32 %40, 4
  %42 = add i32 %41, %.1
  br label %43

43:                                               ; preds = %8, %36
  %.0 = phi i32 [ %42, %36 ], [ %1, %8 ]
  call void @llvm.lifetime.end.p0(i64 4, ptr nonnull %9) #13
  ret i32 %.0
}